; Function Attrs: mustprogress nounwind uwtable
define hidden noundef ptr @_ZN4Node12find_similarEi(ptr noundef nonnull readonly align 8 dereferenceable(52) %0, i32 noundef %1) local_unnamed_addr #0 align 2 {
  %3 = getelementptr inbounds i8, ptr %0, i64 24
  %4 = load i32, ptr %3, align 8
  %5 = icmp ugt i32 %4, 1
  br i1 %5, label %6, label %.loopexit

6:                                                ; preds = %2
  %7 = getelementptr inbounds i8, ptr %0, i64 8
  %8 = load ptr, ptr %7, align 8
  %9 = getelementptr inbounds i8, ptr %8, i64 8
  %10 = load ptr, ptr %9, align 8
  %.not = icmp eq ptr %10, null
  br i1 %.not, label %.loopexit, label %11

11:                                               ; preds = %6
  %12 = getelementptr inbounds i8, ptr %10, i64 32
  %13 = load i32, ptr %12, align 8
  %14 = icmp ugt i32 %13, 1
  br i1 %14, label %.lr.ph33.preheader, label %.loopexit

.lr.ph33.preheader:                               ; preds = %11
  %15 = getelementptr inbounds i8, ptr %10, i64 16
  %16 = load ptr, ptr %15, align 8
  %17 = zext i32 %13 to i64
  %18 = getelementptr inbounds ptr, ptr %16, i64 %17
  br label %.lr.ph33

.lr.ph33:                                         ; preds = %.lr.ph33.preheader, %41
  %.02231 = phi ptr [ %42, %41 ], [ %16, %.lr.ph33.preheader ]
  %19 = load ptr, ptr %.02231, align 8
  %.not26 = icmp eq ptr %19, %0
  br i1 %.not26, label %41, label %20

20:                                               ; preds = %.lr.ph33
  %21 = load ptr, ptr %19, align 8
  %22 = load ptr, ptr %21, align 8
  %23 = tail call noundef i32 %22(ptr noundef nonnull align 8 dereferenceable(52) %19) #15
  %24 = icmp eq i32 %23, %1
  br i1 %24, label %25, label %41

25:                                               ; preds = %20
  %26 = getelementptr inbounds i8, ptr %19, i64 24
  %27 = load i32, ptr %26, align 8
  %28 = load i32, ptr %3, align 8
  %29 = icmp eq i32 %27, %28
  br i1 %29, label %.preheader, label %41

.preheader:                                       ; preds = %25
  %.not37 = icmp eq i32 %27, 0
  br i1 %.not37, label %._crit_edge, label %.lr.ph

.lr.ph:                                           ; preds = %.preheader
  %30 = getelementptr inbounds i8, ptr %19, i64 8
  %31 = load ptr, ptr %30, align 8
  %32 = load ptr, ptr %7, align 8
  %wide.trip.count = zext i32 %27 to i64
  br label %33

33:                                               ; preds = %.lr.ph, %38
  %indvars.iv = phi i64 [ 0, %.lr.ph ], [ %indvars.iv.next, %38 ]
  %34 = getelementptr inbounds ptr, ptr %31, i64 %indvars.iv
  %35 = load ptr, ptr %34, align 8
  %36 = getelementptr inbounds ptr, ptr %32, i64 %indvars.iv
  %37 = load ptr, ptr %36, align 8
  %.not27 = icmp eq ptr %35, %37
  br i1 %.not27, label %38, label %._crit_edge.loopexit

38:                                               ; preds = %33
  %indvars.iv.next = add nuw nsw i64 %indvars.iv, 1
  %exitcond.not = icmp eq i64 %indvars.iv.next, %wide.trip.count
  br i1 %exitcond.not, label %.loopexit, label %33, !llvm.loop !44

._crit_edge.loopexit:                             ; preds = %33
  %39 = trunc nuw i64 %indvars.iv to i32
  br label %._crit_edge

._crit_edge:                                      ; preds = %._crit_edge.loopexit, %.preheader
  %.0.lcssa = phi i32 [ 0, %.preheader ], [ %39, %._crit_edge.loopexit ]
  %40 = icmp eq i32 %.0.lcssa, %27
  br i1 %40, label %.loopexit, label %41

41:                                               ; preds = %.lr.ph33, %20, %25, %._crit_edge
  %42 = getelementptr inbounds i8, ptr %.02231, i64 8
  %43 = icmp ult ptr %42, %18
  br i1 %43, label %.lr.ph33, label %.loopexit, !llvm.loop !45

.loopexit:                                        ; preds = %._crit_edge, %41, %38, %2, %11, %6
  %.021 = phi ptr [ null, %6 ], [ null, %11 ], [ null, %2 ], [ %19, %38 ], [ %19, %._crit_edge ], [ null, %41 ]
  ret ptr %.021
}